; Function Attrs: nounwind uwtable
define internal fastcc void @DestroyPhysicalAudioDevice(ptr noundef %0) unnamed_addr #0 {
  %.not = icmp eq ptr %0, null
  br i1 %.not, label %19, label %2

2:                                                ; preds = %1
  %3 = load ptr, ptr %0, align 8
  tail call void @SDL_LockMutex_REAL(ptr noundef %3) #14
  %4 = getelementptr inbounds nuw i8, ptr %0, i64 208
  %5 = load ptr, ptr %4, align 8
  %.not1415 = icmp eq ptr %5, null
  br i1 %.not1415, label %._crit_edge, label %.lr.ph

.lr.ph:                                           ; preds = %2, %.lr.ph
  %6 = phi ptr [ %7, %.lr.ph ], [ %5, %2 ]
  tail call fastcc void @DestroyLogicalAudioDevice(ptr noundef %6)
  %7 = load ptr, ptr %4, align 8
  %.not14 = icmp eq ptr %7, null
  br i1 %.not14, label %._crit_edge, label %.lr.ph, !llvm.loop !8

._crit_edge:                                      ; preds = %.lr.ph, %2
  tail call fastcc void @ClosePhysicalAudioDevice(ptr noundef nonnull %0)
  %8 = load ptr, ptr getelementptr inbounds nuw (i8, ptr @current_audio, i64 104), align 8
  tail call void %8(ptr noundef nonnull %0) #14
  %9 = load ptr, ptr %0, align 8
  tail call void @SDL_UnlockMutex_REAL(ptr noundef %9) #14
  %10 = load ptr, ptr %0, align 8
  tail call void @SDL_DestroyMutex_REAL(ptr noundef %10) #14
  %11 = getelementptr inbounds nuw i8, ptr %0, i64 8
  %12 = load ptr, ptr %11, align 8
  tail call void @SDL_DestroyCondition_REAL(ptr noundef %12) #14
  %13 = getelementptr inbounds nuw i8, ptr %0, i64 152
  %14 = load ptr, ptr %13, align 8
  tail call void @SDL_free_REAL(ptr noundef %14) #14
  %15 = getelementptr inbounds nuw i8, ptr %0, i64 112
  %16 = load ptr, ptr %15, align 8
  tail call void @SDL_free_REAL(ptr noundef %16) #14
  %17 = getelementptr inbounds nuw i8, ptr %0, i64 72
  %18 = load ptr, ptr %17, align 8
  tail call void @SDL_free_REAL(ptr noundef %18) #14
  tail call void @SDL_free_REAL(ptr noundef nonnull %0) #14
  br label %19

19:                                               ; preds = %1, %._crit_edge
  ret void
}